; Function Attrs: mustprogress nofree norecurse nosync nounwind willreturn memory(read, inaccessiblemem: none) uwtable
define { <2 x float>, float } @_ZNK3vcg3tri2io10BreElement5CoordEv(ptr nocapture noundef nonnull readonly align 8 dereferenceable(8) %0) local_unnamed_addr #14 align 2 {
  %2 = load ptr, ptr %0, align 8
  %3 = getelementptr inbounds i8, ptr %2, i64 16
  %4 = load i64, ptr %3, align 8
  %5 = getelementptr inbounds i8, ptr %2, i64 %4
  %6 = load <2 x float>, ptr %5, align 4
  %7 = getelementptr inbounds i8, ptr %5, i64 8
  %8 = load float, ptr %7, align 4
  %.fca.0.insert = insertvalue { <2 x float>, float } poison, <2 x float> %6, 0
  %.fca.1.insert = insertvalue { <2 x float>, float } %.fca.0.insert, float %8, 1
  ret { <2 x float>, float } %.fca.1.insert
}